; Function Attrs: nofree nounwind memory(readwrite, argmem: write) uwtable
define noalias noundef ptr @Abc_NtkManRefStart(i32 noundef %0, i32 noundef %1, i32 %2, i32 noundef %3) local_unnamed_addr #6 {
  %calloc = tail call dereferenceable_or_null(168) ptr @calloc(i64 1, i64 168)
  %5 = tail call noalias dereferenceable_or_null(16) ptr @malloc(i64 noundef 16) #18
  %6 = getelementptr inbounds nuw i8, ptr %5, i64 4
  store i32 0, ptr %6, align 4, !tbaa !78
  store i32 100, ptr %5, align 8, !tbaa !80
  %7 = tail call noalias dereferenceable_or_null(100) ptr @malloc(i64 noundef 100) #18
  %8 = getelementptr inbounds nuw i8, ptr %5, i64 8
  store ptr %7, ptr %8, align 8, !tbaa !81
  %9 = getelementptr inbounds nuw i8, ptr %calloc, i64 40
  store ptr %5, ptr %9, align 8, !tbaa !82
  %10 = tail call noalias dereferenceable_or_null(16) ptr @malloc(i64 noundef 16) #18
  %11 = getelementptr inbounds nuw i8, ptr %10, i64 4
  store i32 0, ptr %11, align 4, !tbaa !8
  store i32 100, ptr %10, align 8, !tbaa !16
  %12 = tail call noalias dereferenceable_or_null(800) ptr @malloc(i64 noundef 800) #18
  %13 = getelementptr inbounds nuw i8, ptr %10, i64 8
  store ptr %12, ptr %13, align 8, !tbaa !11
  %14 = getelementptr inbounds nuw i8, ptr %calloc, i64 56
  store ptr %10, ptr %14, align 8, !tbaa !57
  store i32 %0, ptr %calloc, align 8, !tbaa !48
  %15 = getelementptr inbounds nuw i8, ptr %calloc, i64 4
  store i32 %1, ptr %15, align 4, !tbaa !83
  %16 = getelementptr inbounds nuw i8, ptr %calloc, i64 8
  store i32 %3, ptr %16, align 8, !tbaa !84
  %17 = tail call noundef range(i32 6, -2147483648) i32 @llvm.smax.i32(i32 %0, i32 6)
  %18 = add nsw i32 %17, -5
  %19 = shl nuw i32 1, %18
  %.fr.i = freeze i32 %19
  %20 = sext i32 %.fr.i to i64
  %21 = shl nsw i64 %20, 2
  %22 = add nsw i64 %21, 8
  %23 = zext nneg i32 %17 to i64
  %24 = mul i64 %22, %23
  %25 = tail call noalias ptr @malloc(i64 noundef %24) #18
  %26 = getelementptr inbounds nuw ptr, ptr %25, i64 %23
  br label %.lr.ph.i.i

.lr.ph.i.i:                                       ; preds = %.lr.ph.i.i, %4
  %indvars.iv.i.i = phi i64 [ 0, %4 ], [ %indvars.iv.next.i.i, %.lr.ph.i.i ]
  %27 = mul nsw i64 %indvars.iv.i.i, %20
  %28 = getelementptr inbounds i32, ptr %26, i64 %27
  %29 = getelementptr inbounds nuw ptr, ptr %25, i64 %indvars.iv.i.i
  store ptr %28, ptr %29, align 8, !tbaa !12
  %indvars.iv.next.i.i = add nuw nsw i64 %indvars.iv.i.i, 1
  %exitcond.not.i.i = icmp eq i64 %indvars.iv.next.i.i, %23
  br i1 %exitcond.not.i.i, label %Vec_PtrAllocSimInfo.exit.i, label %.lr.ph.i.i, !llvm.loop !85

Vec_PtrAllocSimInfo.exit.i:                       ; preds = %.lr.ph.i.i
  %30 = tail call noalias dereferenceable_or_null(16) ptr @malloc(i64 noundef 16) #18
  %31 = getelementptr inbounds nuw i8, ptr %30, i64 4
  store i32 %17, ptr %31, align 4, !tbaa !8
  store i32 %17, ptr %30, align 8, !tbaa !16
  %32 = getelementptr inbounds nuw i8, ptr %30, i64 8
  store ptr %25, ptr %32, align 8, !tbaa !11
  %33 = icmp sgt i32 %.fr.i, 0
  br i1 %33, label %.lr.ph33.split.us.split.us.preheader.i, label %Vec_PtrAllocTruthTables.exit

.lr.ph33.split.us.split.us.preheader.i:           ; preds = %Vec_PtrAllocSimInfo.exit.i
  %wide.trip.count67.i = zext nneg i32 %.fr.i to i64
  br label %.lr.ph33.split.us.split.us.i

.lr.ph33.split.us.split.us.i:                     ; preds = %..loopexit27_crit_edge.us.us.i, %.lr.ph33.split.us.split.us.preheader.i
  %indvars.iv74.i = phi i64 [ 0, %.lr.ph33.split.us.split.us.preheader.i ], [ %indvars.iv.next75.i, %..loopexit27_crit_edge.us.us.i ]
  %34 = getelementptr inbounds nuw ptr, ptr %25, i64 %indvars.iv74.i
  %35 = load ptr, ptr %34, align 8, !tbaa !12
  %36 = icmp samesign ult i64 %indvars.iv74.i, 5
  br i1 %36, label %.preheader.us.us.i, label %.preheader26.us.us.i

37:                                               ; preds = %.preheader26.us.us.i, %37
  %indvars.iv64.i = phi i64 [ 0, %.preheader26.us.us.i ], [ %indvars.iv.next65.i, %37 ]
  %38 = trunc nuw nsw i64 %indvars.iv64.i to i32
  %39 = and i32 %47, %38
  %.not.us.us.i = icmp ne i32 %39, 0
  %spec.select.i = sext i1 %.not.us.us.i to i32
  %40 = getelementptr inbounds nuw i32, ptr %35, i64 %indvars.iv64.i
  store i32 %spec.select.i, ptr %40, align 4, !tbaa !38
  %indvars.iv.next65.i = add nuw nsw i64 %indvars.iv64.i, 1
  %exitcond68.not.i = icmp eq i64 %indvars.iv.next65.i, %wide.trip.count67.i
  br i1 %exitcond68.not.i, label %..loopexit27_crit_edge.us.us.i, label %37, !llvm.loop !86

..loopexit27_crit_edge.us.us.i:                   ; preds = %37, %41
  %indvars.iv.next75.i = add nuw nsw i64 %indvars.iv74.i, 1
  %exitcond78.not.i = icmp eq i64 %indvars.iv.next75.i, %23
  br i1 %exitcond78.not.i, label %Vec_PtrAllocTruthTables.exit, label %.lr.ph33.split.us.split.us.i, !llvm.loop !87

41:                                               ; preds = %.preheader.us.us.i, %41
  %indvars.iv69.i = phi i64 [ 0, %.preheader.us.us.i ], [ %indvars.iv.next70.i, %41 ]
  %42 = getelementptr inbounds nuw i32, ptr %35, i64 %indvars.iv69.i
  store i32 %44, ptr %42, align 4, !tbaa !38
  %indvars.iv.next70.i = add nuw nsw i64 %indvars.iv69.i, 1
  %exitcond73.not.i = icmp eq i64 %indvars.iv.next70.i, %wide.trip.count67.i
  br i1 %exitcond73.not.i, label %..loopexit27_crit_edge.us.us.i, label %41, !llvm.loop !88

.preheader.us.us.i:                               ; preds = %.lr.ph33.split.us.split.us.i
  %43 = getelementptr inbounds nuw [5 x i32], ptr @__const.Vec_PtrAllocTruthTables.Masks, i64 0, i64 %indvars.iv74.i
  %44 = load i32, ptr %43, align 4, !tbaa !38
  br label %41

.preheader26.us.us.i:                             ; preds = %.lr.ph33.split.us.split.us.i
  %45 = trunc i64 %indvars.iv74.i to i32
  %46 = add i32 %45, -5
  %47 = shl nuw i32 1, %46
  br label %37

Vec_PtrAllocTruthTables.exit:                     ; preds = %..loopexit27_crit_edge.us.us.i, %Vec_PtrAllocSimInfo.exit.i
  %48 = getelementptr inbounds nuw i8, ptr %calloc, i64 16
  store ptr %30, ptr %48, align 8, !tbaa !55
  %49 = tail call noalias dereferenceable_or_null(16) ptr @malloc(i64 noundef 16) #18
  %50 = getelementptr inbounds nuw i8, ptr %49, i64 4
  store i32 0, ptr %50, align 4, !tbaa !8
  store i32 100, ptr %49, align 8, !tbaa !16
  %51 = tail call noalias dereferenceable_or_null(800) ptr @malloc(i64 noundef 800) #18
  %52 = getelementptr inbounds nuw i8, ptr %49, i64 8
  store ptr %51, ptr %52, align 8, !tbaa !11
  %53 = getelementptr inbounds nuw i8, ptr %calloc, i64 24
  store ptr %49, ptr %53, align 8, !tbaa !56
  %54 = tail call noalias dereferenceable_or_null(16) ptr @malloc(i64 noundef 16) #18
  %55 = getelementptr inbounds nuw i8, ptr %54, i64 4
  store i32 0, ptr %55, align 4, !tbaa !73
  store i32 65536, ptr %54, align 8, !tbaa !71
  %56 = tail call noalias dereferenceable_or_null(262144) ptr @malloc(i64 noundef 262144) #18
  %57 = getelementptr inbounds nuw i8, ptr %54, i64 8
  store ptr %56, ptr %57, align 8, !tbaa !72
  %58 = getelementptr inbounds nuw i8, ptr %calloc, i64 32
  store ptr %54, ptr %58, align 8, !tbaa !66
  ret ptr %calloc
}